target datalayout = "e-m:e-p270:32:32-p271:32:32-p272:64:64-i64:64-i128:128-f80:128-n8:16:32:64-S128"
target triple = "x86_64-pc-linux-gnu"

%struct.assembler = type { ptr, i32, ptr, i32, i32, ptr, i32 }
%struct._object = type { %union.anon, ptr }
%union.anon = type { i64 }
%struct._PyExceptHandlerInfo = type { i32, i32, i32 }
%struct.PyBytesObject = type { %struct.PyVarObject, i64, [1 x i8] }
%struct.PyVarObject = type { %struct._object, i64 }

; Function Attrs: inlinehint nounwind uwtable
define internal ptr @PyBytes_AS_STRING(ptr noundef %0) #4 {
  %2 = alloca ptr, align 8
  store ptr %0, ptr %2, align 8, !tbaa !8
  %3 = load ptr, ptr %2, align 8, !tbaa !8
  %4 = getelementptr inbounds nuw %struct.PyBytesObject, ptr %3, i32 0, i32 2
  %5 = getelementptr inbounds [1 x i8], ptr %4, i64 0, i64 0
  ret ptr %5
}

; Function Attrs: inlinehint nounwind uwtable
define internal void @write_except_byte(ptr noundef %0, i32 noundef %1) #4 {
  %3 = alloca ptr, align 8
  %4 = alloca i32, align 4
  %5 = alloca ptr, align 8
  store ptr %0, ptr %3, align 8, !tbaa !45
  store i32 %1, ptr %4, align 4, !tbaa !10
  call void @llvm.lifetime.start.p0(i64 8, ptr %5) #7
  %6 = load ptr, ptr %3, align 8, !tbaa !45
  %7 = getelementptr inbounds nuw %struct.assembler, ptr %6, i32 0, i32 2
  %8 = load ptr, ptr %7, align 8, !tbaa !77
  %9 = call ptr @PyBytes_AS_STRING(ptr noundef %8)
  store ptr %9, ptr %5, align 8, !tbaa !97
  %10 = load i32, ptr %4, align 4, !tbaa !10
  %11 = trunc i32 %10 to i8
  %12 = load ptr, ptr %5, align 8, !tbaa !97
  %13 = load ptr, ptr %3, align 8, !tbaa !45
  %14 = getelementptr inbounds nuw %struct.assembler, ptr %13, i32 0, i32 3
  %15 = load i32, ptr %14, align 8, !tbaa !50
  %16 = add i32 %15, 1
  store i32 %16, ptr %14, align 8, !tbaa !50
  %17 = sext i32 %15 to i64
  %18 = getelementptr i8, ptr %12, i64 %17
  store i8 %11, ptr %18, align 1, !tbaa !79
  call void @llvm.lifetime.end.p0(i64 8, ptr %5) #7
  ret void
}

; Function Attrs: inlinehint nounwind uwtable
define internal i64 @Py_SIZE(ptr noundef %0) #4 {
  %2 = alloca ptr, align 8
  store ptr %0, ptr %2, align 8, !tbaa !8
  %3 = load ptr, ptr %2, align 8, !tbaa !8
  %4 = getelementptr inbounds nuw %struct.PyVarObject, ptr %3, i32 0, i32 1
  %5 = load i64, ptr %4, align 8, !tbaa !90
  ret i64 %5
}

; Function Attrs: nounwind uwtable
define internal void @assemble_emit_exception_table_item(ptr noundef %0, i32 noundef %1, i32 noundef %2) #0 {
  %4 = alloca ptr, align 8
  %5 = alloca i32, align 4
  %6 = alloca i32, align 4
  store ptr %0, ptr %4, align 8, !tbaa !45
  store i32 %1, ptr %5, align 4, !tbaa !10
  store i32 %2, ptr %6, align 4, !tbaa !10
  %7 = load i32, ptr %5, align 4, !tbaa !10
  %8 = icmp sge i32 %7, 16777216
  br i1 %8, label %9, label %16

9:                                                ; preds = %3
  %10 = load ptr, ptr %4, align 8, !tbaa !45
  %11 = load i32, ptr %5, align 4, !tbaa !10
  %12 = ashr i32 %11, 24
  %13 = or i32 %12, 64
  %14 = load i32, ptr %6, align 4, !tbaa !10
  %15 = or i32 %13, %14
  call void @write_except_byte(ptr noundef %10, i32 noundef %15)
  store i32 0, ptr %6, align 4, !tbaa !10
  br label %16

16:                                               ; preds = %9, %3
  %17 = load i32, ptr %5, align 4, !tbaa !10
  %18 = icmp sge i32 %17, 262144
  br i1 %18, label %19, label %27

19:                                               ; preds = %16
  %20 = load ptr, ptr %4, align 8, !tbaa !45
  %21 = load i32, ptr %5, align 4, !tbaa !10
  %22 = ashr i32 %21, 18
  %23 = and i32 %22, 63
  %24 = or i32 %23, 64
  %25 = load i32, ptr %6, align 4, !tbaa !10
  %26 = or i32 %24, %25
  call void @write_except_byte(ptr noundef %20, i32 noundef %26)
  store i32 0, ptr %6, align 4, !tbaa !10
  br label %27

27:                                               ; preds = %19, %16
  %28 = load i32, ptr %5, align 4, !tbaa !10
  %29 = icmp sge i32 %28, 4096
  br i1 %29, label %30, label %38

30:                                               ; preds = %27
  %31 = load ptr, ptr %4, align 8, !tbaa !45
  %32 = load i32, ptr %5, align 4, !tbaa !10
  %33 = ashr i32 %32, 12
  %34 = and i32 %33, 63
  %35 = or i32 %34, 64
  %36 = load i32, ptr %6, align 4, !tbaa !10
  %37 = or i32 %35, %36
  call void @write_except_byte(ptr noundef %31, i32 noundef %37)
  store i32 0, ptr %6, align 4, !tbaa !10
  br label %38

38:                                               ; preds = %30, %27
  %39 = load i32, ptr %5, align 4, !tbaa !10
  %40 = icmp sge i32 %39, 64
  br i1 %40, label %41, label %49

41:                                               ; preds = %38
  %42 = load ptr, ptr %4, align 8, !tbaa !45
  %43 = load i32, ptr %5, align 4, !tbaa !10
  %44 = ashr i32 %43, 6
  %45 = and i32 %44, 63
  %46 = or i32 %45, 64
  %47 = load i32, ptr %6, align 4, !tbaa !10
  %48 = or i32 %46, %47
  call void @write_except_byte(ptr noundef %42, i32 noundef %48)
  store i32 0, ptr %6, align 4, !tbaa !10
  br label %49

49:                                               ; preds = %41, %38
  %50 = load ptr, ptr %4, align 8, !tbaa !45
  %51 = load i32, ptr %5, align 4, !tbaa !10
  %52 = and i32 %51, 63
  %53 = load i32, ptr %6, align 4, !tbaa !10
  %54 = or i32 %52, %53
  call void @write_except_byte(ptr noundef %50, i32 noundef %54)
  ret void
}

; Function Attrs: inlinehint nounwind uwtable
define internal i64 @PyBytes_GET_SIZE(ptr noundef %0) #4 {
  %2 = alloca ptr, align 8
  %3 = alloca ptr, align 8
  store ptr %0, ptr %2, align 8, !tbaa !8
  call void @llvm.lifetime.start.p0(i64 8, ptr %3) #7
  %4 = load ptr, ptr %2, align 8, !tbaa !8
  store ptr %4, ptr %3, align 8, !tbaa !4
  %5 = load ptr, ptr %3, align 8, !tbaa !4
  %6 = call i64 @Py_SIZE(ptr noundef %5)
  call void @llvm.lifetime.end.p0(i64 8, ptr %3) #7
  ret i64 %6
}

; Function Attrs: nounwind uwtable
define internal i32 @assemble_emit_exception_table_entry(ptr noundef %0, i32 noundef %1, i32 noundef %2, i32 noundef %3, ptr noundef %4) #0 {
  %6 = alloca i32, align 4
  %7 = alloca ptr, align 8
  %8 = alloca i32, align 4
  %9 = alloca i32, align 4
  %10 = alloca i32, align 4
  %11 = alloca ptr, align 8
  %12 = alloca i64, align 8
  %13 = alloca i32, align 4
  %14 = alloca i32, align 4
  %15 = alloca i32, align 4
  %16 = alloca i32, align 4
  %17 = alloca i32, align 4
  store ptr %0, ptr %7, align 8, !tbaa !45
  store i32 %1, ptr %8, align 4, !tbaa !10
  store i32 %2, ptr %9, align 4, !tbaa !10
  store i32 %3, ptr %10, align 4, !tbaa !10
  store ptr %4, ptr %11, align 8, !tbaa !4
  call void @llvm.lifetime.start.p0(i64 8, ptr %12) #7
  %18 = load ptr, ptr %7, align 8, !tbaa !45
  %19 = getelementptr inbounds nuw %struct.assembler, ptr %18, i32 0, i32 2
  %20 = load ptr, ptr %19, align 8, !tbaa !77
  %21 = call i64 @PyBytes_GET_SIZE(ptr noundef %20)
  store i64 %21, ptr %12, align 8, !tbaa !80
  %22 = load ptr, ptr %7, align 8, !tbaa !45
  %23 = getelementptr inbounds nuw %struct.assembler, ptr %22, i32 0, i32 3
  %24 = load i32, ptr %23, align 8, !tbaa !50
  %25 = add i32 %24, 20
  %26 = sext i32 %25 to i64
  %27 = load i64, ptr %12, align 8, !tbaa !80
  %28 = icmp sge i64 %26, %27
  br i1 %28, label %29, label %38

29:                                               ; preds = %5
  %30 = load ptr, ptr %7, align 8, !tbaa !45
  %31 = getelementptr inbounds nuw %struct.assembler, ptr %30, i32 0, i32 2
  %32 = load i64, ptr %12, align 8, !tbaa !80
  %33 = mul i64 %32, 2
  %34 = call i32 @_PyBytes_Resize(ptr noundef %31, i64 noundef %33)
  %35 = icmp slt i32 %34, 0
  br i1 %35, label %36, label %37

36:                                               ; preds = %29
  store i32 -1, ptr %6, align 4
  store i32 1, ptr %13, align 4
  br label %69

37:                                               ; preds = %29
  br label %38

38:                                               ; preds = %37, %5
  call void @llvm.lifetime.start.p0(i64 4, ptr %14) #7
  %39 = load i32, ptr %9, align 4, !tbaa !10
  %40 = load i32, ptr %8, align 4, !tbaa !10
  %41 = sub i32 %39, %40
  store i32 %41, ptr %14, align 4, !tbaa !10
  call void @llvm.lifetime.start.p0(i64 4, ptr %15) #7
  %42 = load i32, ptr %10, align 4, !tbaa !10
  store i32 %42, ptr %15, align 4, !tbaa !10
  call void @llvm.lifetime.start.p0(i64 4, ptr %16) #7
  %43 = load ptr, ptr %11, align 8, !tbaa !4
  %44 = getelementptr inbounds nuw %struct._PyExceptHandlerInfo, ptr %43, i32 0, i32 1
  %45 = load i32, ptr %44, align 4, !tbaa !84
  %46 = sub i32 %45, 1
  store i32 %46, ptr %16, align 4, !tbaa !10
  %47 = load ptr, ptr %11, align 8, !tbaa !4
  %48 = getelementptr inbounds nuw %struct._PyExceptHandlerInfo, ptr %47, i32 0, i32 2
  %49 = load i32, ptr %48, align 4, !tbaa !85
  %50 = icmp sgt i32 %49, 0
  br i1 %50, label %51, label %54

51:                                               ; preds = %38
  %52 = load i32, ptr %16, align 4, !tbaa !10
  %53 = sub i32 %52, 1
  store i32 %53, ptr %16, align 4, !tbaa !10
  br label %54

54:                                               ; preds = %51, %38
  call void @llvm.lifetime.start.p0(i64 4, ptr %17) #7
  %55 = load i32, ptr %16, align 4, !tbaa !10
  %56 = shl i32 %55, 1
  %57 = load ptr, ptr %11, align 8, !tbaa !4
  %58 = getelementptr inbounds nuw %struct._PyExceptHandlerInfo, ptr %57, i32 0, i32 2
  %59 = load i32, ptr %58, align 4, !tbaa !85
  %60 = or i32 %56, %59
  store i32 %60, ptr %17, align 4, !tbaa !10
  %61 = load ptr, ptr %7, align 8, !tbaa !45
  %62 = load i32, ptr %8, align 4, !tbaa !10
  call void @assemble_emit_exception_table_item(ptr noundef %61, i32 noundef %62, i32 noundef 128)
  %63 = load ptr, ptr %7, align 8, !tbaa !45
  %64 = load i32, ptr %14, align 4, !tbaa !10
  call void @assemble_emit_exception_table_item(ptr noundef %63, i32 noundef %64, i32 noundef 0)
  %65 = load ptr, ptr %7, align 8, !tbaa !45
  %66 = load i32, ptr %15, align 4, !tbaa !10
  call void @assemble_emit_exception_table_item(ptr noundef %65, i32 noundef %66, i32 noundef 0)
  %67 = load ptr, ptr %7, align 8, !tbaa !45
  %68 = load i32, ptr %17, align 4, !tbaa !10
  call void @assemble_emit_exception_table_item(ptr noundef %67, i32 noundef %68, i32 noundef 0)
  store i32 0, ptr %6, align 4
  store i32 1, ptr %13, align 4
  call void @llvm.lifetime.end.p0(i64 4, ptr %17) #7
  call void @llvm.lifetime.end.p0(i64 4, ptr %16) #7
  call void @llvm.lifetime.end.p0(i64 4, ptr %15) #7
  call void @llvm.lifetime.end.p0(i64 4, ptr %14) #7
  br label %69

69:                                               ; preds = %54, %36
  call void @llvm.lifetime.end.p0(i64 8, ptr %12) #7
  %70 = load i32, ptr %6, align 4
  ret i32 %70
}