; Function Attrs: nounwind uwtable
define internal fastcc range(i32 -1, 1) i32 @assemble_emit_exception_table_entry(ptr noundef nonnull %0, i32 noundef %1, i32 noundef %2, i32 noundef %3, i32 %.4.val, i32 %.8.val) unnamed_addr #0 {
  %5 = getelementptr inbounds nuw i8, ptr %0, i64 16
  %6 = load ptr, ptr %5, align 8, !tbaa !38
  %7 = getelementptr i8, ptr %6, i64 16
  %.val = load i64, ptr %7, align 8, !tbaa !39
  %8 = getelementptr inbounds nuw i8, ptr %0, i64 24
  %9 = load i32, ptr %8, align 8, !tbaa !48
  %10 = add i32 %9, 20
  %11 = sext i32 %10 to i64
  %.not = icmp sgt i64 %.val, %11
  br i1 %.not, label %16, label %12

12:                                               ; preds = %4
  %13 = shl i64 %.val, 1
  %14 = tail call i32 @_PyBytes_Resize(ptr noundef nonnull %5, i64 noundef %13) #5
  %15 = icmp slt i32 %14, 0
  br i1 %15, label %245, label %16

16:                                               ; preds = %12, %4
  %17 = sub i32 %2, %1
  %18 = icmp sgt i32 %.8.val, 0
  %spec.select.v = select i1 %18, i32 2147483646, i32 2147483647
  %spec.select = add i32 %spec.select.v, %.4.val
  %19 = shl i32 %spec.select, 1
  %20 = or i32 %19, %.8.val
  %21 = icmp sgt i32 %1, 16777215
  br i1 %21, label %.thread.i, label %31

.thread.i:                                        ; preds = %16
  %22 = lshr i32 %1, 24
  %23 = load ptr, ptr %5, align 8, !tbaa !38
  %24 = getelementptr inbounds nuw i8, ptr %23, i64 32
  %25 = trunc nuw i32 %22 to i8
  %26 = or i8 %25, -64
  %27 = load i32, ptr %8, align 8, !tbaa !48
  %28 = add i32 %27, 1
  store i32 %28, ptr %8, align 8, !tbaa !48
  %29 = sext i32 %27 to i64
  %30 = getelementptr i8, ptr %24, i64 %29
  store i8 %26, ptr %30, align 1, !tbaa !25
  br label %.thread24.i

31:                                               ; preds = %16
  %32 = icmp sgt i32 %1, 262143
  br i1 %32, label %.thread24.i, label %44

.thread24.i:                                      ; preds = %31, %.thread.i
  %.023.i = phi i32 [ 0, %.thread.i ], [ 128, %31 ]
  %33 = lshr i32 %1, 18
  %34 = and i32 %33, 63
  %35 = or disjoint i32 %.023.i, %34
  %36 = load ptr, ptr %5, align 8, !tbaa !38
  %37 = getelementptr inbounds nuw i8, ptr %36, i64 32
  %38 = trunc nuw i32 %35 to i8
  %39 = or disjoint i8 %38, 64
  %40 = load i32, ptr %8, align 8, !tbaa !48
  %41 = add i32 %40, 1
  store i32 %41, ptr %8, align 8, !tbaa !48
  %42 = sext i32 %40 to i64
  %43 = getelementptr i8, ptr %37, i64 %42
  store i8 %39, ptr %43, align 1, !tbaa !25
  br label %.thread27.i

44:                                               ; preds = %31
  %45 = icmp sgt i32 %1, 4095
  br i1 %45, label %.thread27.i, label %57

.thread27.i:                                      ; preds = %44, %.thread24.i
  %.126.i = phi i32 [ 0, %.thread24.i ], [ 128, %44 ]
  %46 = lshr i32 %1, 12
  %47 = and i32 %46, 63
  %48 = or disjoint i32 %.126.i, %47
  %49 = load ptr, ptr %5, align 8, !tbaa !38
  %50 = getelementptr inbounds nuw i8, ptr %49, i64 32
  %51 = trunc nuw i32 %48 to i8
  %52 = or disjoint i8 %51, 64
  %53 = load i32, ptr %8, align 8, !tbaa !48
  %54 = add i32 %53, 1
  store i32 %54, ptr %8, align 8, !tbaa !48
  %55 = sext i32 %53 to i64
  %56 = getelementptr i8, ptr %50, i64 %55
  store i8 %52, ptr %56, align 1, !tbaa !25
  br label %59

57:                                               ; preds = %44
  %58 = icmp sgt i32 %1, 63
  br i1 %58, label %59, label %assemble_emit_exception_table_item.exit

59:                                               ; preds = %57, %.thread27.i
  %.229.i = phi i32 [ 0, %.thread27.i ], [ 128, %57 ]
  %60 = lshr i32 %1, 6
  %61 = and i32 %60, 63
  %62 = or disjoint i32 %.229.i, %61
  %63 = load ptr, ptr %5, align 8, !tbaa !38
  %64 = getelementptr inbounds nuw i8, ptr %63, i64 32
  %65 = trunc nuw i32 %62 to i8
  %66 = or disjoint i8 %65, 64
  %67 = load i32, ptr %8, align 8, !tbaa !48
  %68 = add i32 %67, 1
  store i32 %68, ptr %8, align 8, !tbaa !48
  %69 = sext i32 %67 to i64
  %70 = getelementptr i8, ptr %64, i64 %69
  store i8 %66, ptr %70, align 1, !tbaa !25
  br label %assemble_emit_exception_table_item.exit

assemble_emit_exception_table_item.exit:          ; preds = %57, %59
  %.3.i = phi i32 [ 0, %59 ], [ 128, %57 ]
  %71 = and i32 %1, 63
  %72 = or disjoint i32 %.3.i, %71
  %73 = load ptr, ptr %5, align 8, !tbaa !38
  %74 = getelementptr inbounds nuw i8, ptr %73, i64 32
  %75 = trunc nuw i32 %72 to i8
  %76 = load i32, ptr %8, align 8, !tbaa !48
  %77 = add i32 %76, 1
  store i32 %77, ptr %8, align 8, !tbaa !48
  %78 = sext i32 %76 to i64
  %79 = getelementptr i8, ptr %74, i64 %78
  store i8 %75, ptr %79, align 1, !tbaa !25
  %80 = icmp sgt i32 %17, 16777215
  br i1 %80, label %.thread.i29, label %90

.thread.i29:                                      ; preds = %assemble_emit_exception_table_item.exit
  %81 = lshr i32 %17, 24
  %82 = load ptr, ptr %5, align 8, !tbaa !38
  %83 = getelementptr inbounds nuw i8, ptr %82, i64 32
  %84 = trunc nuw i32 %81 to i8
  %85 = or i8 %84, 64
  %86 = load i32, ptr %8, align 8, !tbaa !48
  %87 = add i32 %86, 1
  store i32 %87, ptr %8, align 8, !tbaa !48
  %88 = sext i32 %86 to i64
  %89 = getelementptr i8, ptr %83, i64 %88
  store i8 %85, ptr %89, align 1, !tbaa !25
  br label %.thread24.i27

90:                                               ; preds = %assemble_emit_exception_table_item.exit
  %91 = icmp sgt i32 %17, 262143
  br i1 %91, label %.thread24.i27, label %102

.thread24.i27:                                    ; preds = %90, %.thread.i29
  %92 = lshr i32 %17, 18
  %93 = load ptr, ptr %5, align 8, !tbaa !38
  %94 = getelementptr inbounds nuw i8, ptr %93, i64 32
  %95 = trunc i32 %92 to i8
  %96 = and i8 %95, 63
  %97 = or disjoint i8 %96, 64
  %98 = load i32, ptr %8, align 8, !tbaa !48
  %99 = add i32 %98, 1
  store i32 %99, ptr %8, align 8, !tbaa !48
  %100 = sext i32 %98 to i64
  %101 = getelementptr i8, ptr %94, i64 %100
  store i8 %97, ptr %101, align 1, !tbaa !25
  br label %.thread27.i25

102:                                              ; preds = %90
  %103 = icmp sgt i32 %17, 4095
  br i1 %103, label %.thread27.i25, label %114

.thread27.i25:                                    ; preds = %102, %.thread24.i27
  %104 = lshr i32 %17, 12
  %105 = load ptr, ptr %5, align 8, !tbaa !38
  %106 = getelementptr inbounds nuw i8, ptr %105, i64 32
  %107 = trunc i32 %104 to i8
  %108 = and i8 %107, 63
  %109 = or disjoint i8 %108, 64
  %110 = load i32, ptr %8, align 8, !tbaa !48
  %111 = add i32 %110, 1
  store i32 %111, ptr %8, align 8, !tbaa !48
  %112 = sext i32 %110 to i64
  %113 = getelementptr i8, ptr %106, i64 %112
  store i8 %109, ptr %113, align 1, !tbaa !25
  br label %116

114:                                              ; preds = %102
  %115 = icmp sgt i32 %17, 63
  br i1 %115, label %116, label %assemble_emit_exception_table_item.exit30

116:                                              ; preds = %114, %.thread27.i25
  %117 = lshr i32 %17, 6
  %118 = load ptr, ptr %5, align 8, !tbaa !38
  %119 = getelementptr inbounds nuw i8, ptr %118, i64 32
  %120 = trunc i32 %117 to i8
  %121 = and i8 %120, 63
  %122 = or disjoint i8 %121, 64
  %123 = load i32, ptr %8, align 8, !tbaa !48
  %124 = add i32 %123, 1
  store i32 %124, ptr %8, align 8, !tbaa !48
  %125 = sext i32 %123 to i64
  %126 = getelementptr i8, ptr %119, i64 %125
  store i8 %122, ptr %126, align 1, !tbaa !25
  br label %assemble_emit_exception_table_item.exit30

assemble_emit_exception_table_item.exit30:        ; preds = %114, %116
  %127 = load ptr, ptr %5, align 8, !tbaa !38
  %128 = getelementptr inbounds nuw i8, ptr %127, i64 32
  %129 = trunc i32 %17 to i8
  %130 = and i8 %129, 63
  %131 = load i32, ptr %8, align 8, !tbaa !48
  %132 = add i32 %131, 1
  store i32 %132, ptr %8, align 8, !tbaa !48
  %133 = sext i32 %131 to i64
  %134 = getelementptr i8, ptr %128, i64 %133
  store i8 %130, ptr %134, align 1, !tbaa !25
  %135 = icmp sgt i32 %3, 16777215
  br i1 %135, label %.thread.i37, label %145

.thread.i37:                                      ; preds = %assemble_emit_exception_table_item.exit30
  %136 = lshr i32 %3, 24
  %137 = load ptr, ptr %5, align 8, !tbaa !38
  %138 = getelementptr inbounds nuw i8, ptr %137, i64 32
  %139 = trunc nuw i32 %136 to i8
  %140 = or i8 %139, 64
  %141 = load i32, ptr %8, align 8, !tbaa !48
  %142 = add i32 %141, 1
  store i32 %142, ptr %8, align 8, !tbaa !48
  %143 = sext i32 %141 to i64
  %144 = getelementptr i8, ptr %138, i64 %143
  store i8 %140, ptr %144, align 1, !tbaa !25
  br label %.thread24.i35

145:                                              ; preds = %assemble_emit_exception_table_item.exit30
  %146 = icmp sgt i32 %3, 262143
  br i1 %146, label %.thread24.i35, label %157

.thread24.i35:                                    ; preds = %145, %.thread.i37
  %147 = lshr i32 %3, 18
  %148 = load ptr, ptr %5, align 8, !tbaa !38
  %149 = getelementptr inbounds nuw i8, ptr %148, i64 32
  %150 = trunc i32 %147 to i8
  %151 = and i8 %150, 63
  %152 = or disjoint i8 %151, 64
  %153 = load i32, ptr %8, align 8, !tbaa !48
  %154 = add i32 %153, 1
  store i32 %154, ptr %8, align 8, !tbaa !48
  %155 = sext i32 %153 to i64
  %156 = getelementptr i8, ptr %149, i64 %155
  store i8 %152, ptr %156, align 1, !tbaa !25
  br label %.thread27.i33

157:                                              ; preds = %145
  %158 = icmp sgt i32 %3, 4095
  br i1 %158, label %.thread27.i33, label %169

.thread27.i33:                                    ; preds = %157, %.thread24.i35
  %159 = lshr i32 %3, 12
  %160 = load ptr, ptr %5, align 8, !tbaa !38
  %161 = getelementptr inbounds nuw i8, ptr %160, i64 32
  %162 = trunc i32 %159 to i8
  %163 = and i8 %162, 63
  %164 = or disjoint i8 %163, 64
  %165 = load i32, ptr %8, align 8, !tbaa !48
  %166 = add i32 %165, 1
  store i32 %166, ptr %8, align 8, !tbaa !48
  %167 = sext i32 %165 to i64
  %168 = getelementptr i8, ptr %161, i64 %167
  store i8 %164, ptr %168, align 1, !tbaa !25
  br label %171

169:                                              ; preds = %157
  %170 = icmp sgt i32 %3, 63
  br i1 %170, label %171, label %assemble_emit_exception_table_item.exit38

171:                                              ; preds = %169, %.thread27.i33
  %172 = lshr i32 %3, 6
  %173 = load ptr, ptr %5, align 8, !tbaa !38
  %174 = getelementptr inbounds nuw i8, ptr %173, i64 32
  %175 = trunc i32 %172 to i8
  %176 = and i8 %175, 63
  %177 = or disjoint i8 %176, 64
  %178 = load i32, ptr %8, align 8, !tbaa !48
  %179 = add i32 %178, 1
  store i32 %179, ptr %8, align 8, !tbaa !48
  %180 = sext i32 %178 to i64
  %181 = getelementptr i8, ptr %174, i64 %180
  store i8 %177, ptr %181, align 1, !tbaa !25
  br label %assemble_emit_exception_table_item.exit38

assemble_emit_exception_table_item.exit38:        ; preds = %169, %171
  %182 = load ptr, ptr %5, align 8, !tbaa !38
  %183 = getelementptr inbounds nuw i8, ptr %182, i64 32
  %184 = trunc i32 %3 to i8
  %185 = and i8 %184, 63
  %186 = load i32, ptr %8, align 8, !tbaa !48
  %187 = add i32 %186, 1
  store i32 %187, ptr %8, align 8, !tbaa !48
  %188 = sext i32 %186 to i64
  %189 = getelementptr i8, ptr %183, i64 %188
  store i8 %185, ptr %189, align 1, !tbaa !25
  %190 = icmp sgt i32 %20, 16777215
  br i1 %190, label %.thread.i45, label %200

.thread.i45:                                      ; preds = %assemble_emit_exception_table_item.exit38
  %191 = lshr i32 %20, 24
  %192 = load ptr, ptr %5, align 8, !tbaa !38
  %193 = getelementptr inbounds nuw i8, ptr %192, i64 32
  %194 = trunc nuw i32 %191 to i8
  %195 = or i8 %194, 64
  %196 = load i32, ptr %8, align 8, !tbaa !48
  %197 = add i32 %196, 1
  store i32 %197, ptr %8, align 8, !tbaa !48
  %198 = sext i32 %196 to i64
  %199 = getelementptr i8, ptr %193, i64 %198
  store i8 %195, ptr %199, align 1, !tbaa !25
  br label %.thread24.i43

200:                                              ; preds = %assemble_emit_exception_table_item.exit38
  %201 = icmp sgt i32 %20, 262143
  br i1 %201, label %.thread24.i43, label %212

.thread24.i43:                                    ; preds = %200, %.thread.i45
  %202 = lshr i32 %20, 18
  %203 = load ptr, ptr %5, align 8, !tbaa !38
  %204 = getelementptr inbounds nuw i8, ptr %203, i64 32
  %205 = trunc i32 %202 to i8
  %206 = and i8 %205, 63
  %207 = or disjoint i8 %206, 64
  %208 = load i32, ptr %8, align 8, !tbaa !48
  %209 = add i32 %208, 1
  store i32 %209, ptr %8, align 8, !tbaa !48
  %210 = sext i32 %208 to i64
  %211 = getelementptr i8, ptr %204, i64 %210
  store i8 %207, ptr %211, align 1, !tbaa !25
  br label %.thread27.i41

212:                                              ; preds = %200
  %213 = icmp sgt i32 %20, 4095
  br i1 %213, label %.thread27.i41, label %224

.thread27.i41:                                    ; preds = %212, %.thread24.i43
  %214 = lshr i32 %20, 12
  %215 = load ptr, ptr %5, align 8, !tbaa !38
  %216 = getelementptr inbounds nuw i8, ptr %215, i64 32
  %217 = trunc i32 %214 to i8
  %218 = and i8 %217, 63
  %219 = or disjoint i8 %218, 64
  %220 = load i32, ptr %8, align 8, !tbaa !48
  %221 = add i32 %220, 1
  store i32 %221, ptr %8, align 8, !tbaa !48
  %222 = sext i32 %220 to i64
  %223 = getelementptr i8, ptr %216, i64 %222
  store i8 %219, ptr %223, align 1, !tbaa !25
  br label %226

224:                                              ; preds = %212
  %225 = icmp sgt i32 %20, 63
  br i1 %225, label %226, label %assemble_emit_exception_table_item.exit46

226:                                              ; preds = %224, %.thread27.i41
  %227 = lshr i32 %20, 6
  %228 = load ptr, ptr %5, align 8, !tbaa !38
  %229 = getelementptr inbounds nuw i8, ptr %228, i64 32
  %230 = trunc i32 %227 to i8
  %231 = and i8 %230, 63
  %232 = or disjoint i8 %231, 64
  %233 = load i32, ptr %8, align 8, !tbaa !48
  %234 = add i32 %233, 1
  store i32 %234, ptr %8, align 8, !tbaa !48
  %235 = sext i32 %233 to i64
  %236 = getelementptr i8, ptr %229, i64 %235
  store i8 %232, ptr %236, align 1, !tbaa !25
  br label %assemble_emit_exception_table_item.exit46

assemble_emit_exception_table_item.exit46:        ; preds = %224, %226
  %237 = load ptr, ptr %5, align 8, !tbaa !38
  %238 = getelementptr inbounds nuw i8, ptr %237, i64 32
  %239 = trunc i32 %20 to i8
  %240 = and i8 %239, 63
  %241 = load i32, ptr %8, align 8, !tbaa !48
  %242 = add i32 %241, 1
  store i32 %242, ptr %8, align 8, !tbaa !48
  %243 = sext i32 %241 to i64
  %244 = getelementptr i8, ptr %238, i64 %243
  store i8 %240, ptr %244, align 1, !tbaa !25
  br label %245

245:                                              ; preds = %12, %assemble_emit_exception_table_item.exit46
  %.0 = phi i32 [ 0, %assemble_emit_exception_table_item.exit46 ], [ -1, %12 ]
  ret i32 %.0
}